target datalayout = "e-m:e-p270:32:32-p271:32:32-p272:64:64-i64:64-i128:128-f80:128-n8:16:32:64-S128"
target triple = "x86_64-pc-linux-gnu"

%struct.AVFilterLink = type { ptr, ptr, ptr, ptr, i32, i32, i32, i32, %struct.AVRational, i32, i32, i32, %struct.AVChannelLayout, %struct.AVRational, ptr, i32, %struct.AVFilterFormatsConfig, %struct.AVFilterFormatsConfig }
%struct.AVChannelLayout = type { i32, i32, %union.anon.1, ptr }
%union.anon.1 = type { i64 }
%struct.AVRational = type { i32, i32 }
%struct.AVFilterFormatsConfig = type { ptr, ptr, ptr, ptr, ptr }
%struct.AVFilterContext = type { ptr, ptr, ptr, ptr, ptr, i32, ptr, ptr, i32, ptr, ptr, i32, i32, ptr, ptr, ptr, ptr, i32, ptr, i32, i32 }
%struct.FieldOrderContext = type { ptr, i32, [4 x i32] }

; Function Attrs: nounwind uwtable
define internal i32 @config_input(ptr noundef %0) #0 {
  %2 = alloca ptr, align 8
  %3 = alloca ptr, align 8
  %4 = alloca ptr, align 8
  store ptr %0, ptr %2, align 8, !tbaa !26
  call void @llvm.lifetime.start.p0(i64 8, ptr %3) #4
  %5 = load ptr, ptr %2, align 8, !tbaa !26
  %6 = getelementptr inbounds nuw %struct.AVFilterLink, ptr %5, i32 0, i32 2
  %7 = load ptr, ptr %6, align 8, !tbaa !30
  store ptr %7, ptr %3, align 8, !tbaa !4
  call void @llvm.lifetime.start.p0(i64 8, ptr %4) #4
  %8 = load ptr, ptr %3, align 8, !tbaa !4
  %9 = getelementptr inbounds nuw %struct.AVFilterContext, ptr %8, i32 0, i32 9
  %10 = load ptr, ptr %9, align 8, !tbaa !38
  store ptr %10, ptr %4, align 8, !tbaa !47
  %11 = load ptr, ptr %4, align 8, !tbaa !47
  %12 = getelementptr inbounds nuw %struct.FieldOrderContext, ptr %11, i32 0, i32 2
  %13 = getelementptr inbounds [4 x i32], ptr %12, i64 0, i64 0
  %14 = load ptr, ptr %2, align 8, !tbaa !26
  %15 = getelementptr inbounds nuw %struct.AVFilterLink, ptr %14, i32 0, i32 5
  %16 = load i32, ptr %15, align 4, !tbaa !64
  %17 = load ptr, ptr %2, align 8, !tbaa !26
  %18 = getelementptr inbounds nuw %struct.AVFilterLink, ptr %17, i32 0, i32 6
  %19 = load i32, ptr %18, align 8, !tbaa !57
  %20 = call i32 @av_image_fill_linesizes(ptr noundef %13, i32 noundef %16, i32 noundef %19)
  call void @llvm.lifetime.end.p0(i64 8, ptr %4) #4
  call void @llvm.lifetime.end.p0(i64 8, ptr %3) #4
  ret i32 %20
}